; Function Attrs: nounwind sspstrong uwtable
define internal fastcc noundef ptr @rb_node_case3_new(ptr noundef captures(none) %0, ptr noundef %1, ptr noundef %2, ptr noundef nonnull readonly captures(none) %3, ptr noundef readonly captures(none) %4, ptr noundef readonly captures(none) %5) unnamed_addr #0 {
  %7 = getelementptr i8, ptr %0, i64 288
  %.val.i = load ptr, ptr %7, align 8, !tbaa !130
  %8 = tail call ptr @rb_ast_newnode(ptr noundef %.val.i, i32 noundef range(i32 0, 115) 6, i64 noundef range(i64 32, 129) 80, i64 noundef 8) #35
  tail call void @rb_node_init(ptr noundef %8, i32 noundef range(i32 0, 115) 6) #35
  %9 = getelementptr inbounds nuw i8, ptr %8, i64 8
  tail call void @llvm.memcpy.p0.p0.i64(ptr noundef nonnull align 8 dereferenceable(16) %9, ptr noundef nonnull readonly align 4 dereferenceable(16) %3, i64 16, i1 false), !tbaa.struct !59
  %10 = load i32, ptr %3, align 4, !tbaa !53
  %11 = sext i32 %10 to i64
  %12 = load i64, ptr %8, align 8, !tbaa !72
  %13 = and i64 %12, 32767
  %14 = shl nsw i64 %11, 15
  %15 = or disjoint i64 %13, %14
  store i64 %15, ptr %8, align 8, !tbaa !72
  %16 = getelementptr inbounds nuw i8, ptr %0, i64 296
  %17 = load i32, ptr %16, align 8, !tbaa !207
  %18 = add i32 %17, 1
  store i32 %18, ptr %16, align 8, !tbaa !207
  %19 = getelementptr inbounds nuw i8, ptr %8, i64 24
  store i32 %17, ptr %19, align 8, !tbaa !208
  %20 = getelementptr inbounds nuw i8, ptr %8, i64 32
  store ptr %1, ptr %20, align 8, !tbaa !307
  %21 = getelementptr inbounds nuw i8, ptr %8, i64 40
  store ptr %2, ptr %21, align 8, !tbaa !309
  %22 = getelementptr inbounds nuw i8, ptr %8, i64 48
  tail call void @llvm.memcpy.p0.p0.i64(ptr noundef nonnull align 8 dereferenceable(16) %22, ptr noundef nonnull align 4 dereferenceable(16) %4, i64 16, i1 false), !tbaa.struct !59
  %23 = getelementptr inbounds nuw i8, ptr %8, i64 64
  tail call void @llvm.memcpy.p0.p0.i64(ptr noundef nonnull align 8 dereferenceable(16) %23, ptr noundef nonnull align 4 dereferenceable(16) %5, i64 16, i1 false), !tbaa.struct !59
  ret ptr %8
}